target datalayout = "e-m:e-p270:32:32-p271:32:32-p272:64:64-i64:64-i128:128-f80:128-n8:16:32:64-S128"
target triple = "x86_64-pc-linux-gnu"

%"class.gmx::ISignaller" = type { ptr }
%"class.std::vector" = type { %"struct.std::_Vector_base" }
%"struct.std::_Vector_base" = type { %"struct.std::_Vector_base<std::function<void (long, double)>, std::allocator<std::function<void (long, double)>>>::_Vector_impl" }
%"struct.std::_Vector_base<std::function<void (long, double)>, std::allocator<std::function<void (long, double)>>>::_Vector_impl" = type { %"struct.std::_Vector_base<std::function<void (long, double)>, std::allocator<std::function<void (long, double)>>>::_Vector_impl_data" }
%"struct.std::_Vector_base<std::function<void (long, double)>, std::allocator<std::function<void (long, double)>>>::_Vector_impl_data" = type { ptr, ptr, ptr }
%"class.gmx::LastStepSignaller" = type <{ %"class.gmx::ISignaller", %"class.gmx::INeighborSearchSignallerClient", %"class.std::vector", i64, i8, [7 x i8], ptr, i64, i8, [7 x i8] }>
%"class.gmx::INeighborSearchSignallerClient" = type { ptr }
%"class.std::optional" = type { %"struct.std::_Optional_base" }
%"struct.std::_Optional_base" = type { %"struct.std::_Optional_payload" }
%"struct.std::_Optional_payload" = type { %"struct.std::_Optional_payload.base", [7 x i8] }
%"struct.std::_Optional_payload.base" = type { %"struct.std::_Optional_payload_base.base" }
%"struct.std::_Optional_payload_base.base" = type <{ %"union.std::_Optional_payload_base<std::function<void (long, double)>>::_Storage", i8 }>
%"union.std::_Optional_payload_base<std::function<void (long, double)>>::_Storage" = type { %"class.std::function" }
%"class.std::function" = type { %"class.std::_Function_base", ptr }
%"class.std::_Function_base" = type { %"union.std::_Any_data", ptr }
%"union.std::_Any_data" = type { %"union.std::_Nocopy_types" }
%"union.std::_Nocopy_types" = type { { i64, i64 } }
%class.anon = type { ptr }
%"struct.std::_Optional_payload_base" = type <{ %"union.std::_Optional_payload_base<std::function<void (long, double)>>::_Storage", i8, [7 x i8] }>

; Function Attrs: mustprogress nounwind uwtable
define linkonce_odr noundef ptr @_ZNSt9_Any_data9_M_accessEv(ptr noundef nonnull align 8 dereferenceable(16) %0) #1 comdat align 2 {
  %2 = alloca ptr, align 8
  store ptr %0, ptr %2, align 8
  %3 = load ptr, ptr %2, align 8
  %4 = getelementptr inbounds [16 x i8], ptr %3, i64 0, i64 0
  ret ptr %4
}

; Function Attrs: mustprogress nounwind uwtable
define internal void @"_ZNSt14_Function_base13_Base_managerIZN3gmx17LastStepSignaller18registerNSCallbackEvE3$_0E9_M_createIS3_EEvRSt9_Any_dataOT_St17integral_constantIbLb1EE"(ptr noundef nonnull align 8 dereferenceable(16) %0, ptr noundef nonnull align 8 dereferenceable(8) %1) #1 align 2 {
  %3 = alloca ptr, align 8
  %4 = alloca ptr, align 8
  store ptr %0, ptr %3, align 8
  store ptr %1, ptr %4, align 8
  %5 = load ptr, ptr %3, align 8
  %6 = call noundef ptr @_ZNSt9_Any_data9_M_accessEv(ptr noundef nonnull align 8 dereferenceable(16) %5) #10
  %7 = load ptr, ptr %4, align 8
  call void @llvm.memcpy.p0.p0.i64(ptr align 8 %6, ptr align 8 %7, i64 8, i1 false)
  ret void
}

; Function Attrs: mustprogress nounwind uwtable
define internal void @"_ZNSt14_Function_base13_Base_managerIZN3gmx17LastStepSignaller18registerNSCallbackEvE3$_0E15_M_init_functorIS3_EEvRSt9_Any_dataOT_"(ptr noundef nonnull align 8 dereferenceable(16) %0, ptr noundef nonnull align 8 dereferenceable(8) %1) #1 align 2 personality ptr @__gxx_personality_v0 {
  %3 = alloca ptr, align 8
  %4 = alloca ptr, align 8
  store ptr %0, ptr %3, align 8
  store ptr %1, ptr %4, align 8
  %5 = load ptr, ptr %3, align 8
  %6 = load ptr, ptr %4, align 8
  invoke void @"_ZNSt14_Function_base13_Base_managerIZN3gmx17LastStepSignaller18registerNSCallbackEvE3$_0E9_M_createIS3_EEvRSt9_Any_dataOT_St17integral_constantIbLb1EE"(ptr noundef nonnull align 8 dereferenceable(16) %5, ptr noundef nonnull align 8 dereferenceable(8) %6)
          to label %7 unwind label %8

7:                                                ; preds = %2
  ret void

8:                                                ; preds = %2
  %9 = landingpad { ptr, i32 }
          catch ptr null
  %10 = extractvalue { ptr, i32 } %9, 0
  call void @__clang_call_terminate(ptr %10) #12
  unreachable
}

; Function Attrs: mustprogress nounwind uwtable
define internal noundef zeroext i1 @"_ZNSt14_Function_base13_Base_managerIZN3gmx17LastStepSignaller18registerNSCallbackEvE3$_0E21_M_not_empty_functionIS3_EEbRKT_"(ptr noundef nonnull align 8 dereferenceable(8) %0) #1 align 2 {
  %2 = alloca ptr, align 8
  store ptr %0, ptr %2, align 8
  ret i1 true
}

; Function Attrs: mustprogress nounwind uwtable
define linkonce_odr void @_ZNSt14_Function_baseC2Ev(ptr noundef nonnull align 8 dereferenceable(24) %0) unnamed_addr #1 comdat align 2 {
  %2 = alloca ptr, align 8
  store ptr %0, ptr %2, align 8
  %3 = load ptr, ptr %2, align 8
  %4 = getelementptr inbounds %"class.std::_Function_base", ptr %3, i32 0, i32 0
  store ptr null, ptr %4, align 8
  %5 = getelementptr inbounds %"class.std::_Function_base", ptr %3, i32 0, i32 1
  store ptr null, ptr %5, align 8
  ret void
}

; Function Attrs: mustprogress nounwind uwtable
define internal void @"_ZNSt8functionIFvldEEC2IZN3gmx17LastStepSignaller18registerNSCallbackEvE3$_0vEEOT_"(ptr noundef nonnull align 8 dereferenceable(32) %0, ptr noundef nonnull align 8 dereferenceable(8) %1) unnamed_addr #1 align 2 {
  %3 = alloca ptr, align 8
  %4 = alloca ptr, align 8
  store ptr %0, ptr %3, align 8
  store ptr %1, ptr %4, align 8
  %5 = load ptr, ptr %3, align 8
  %6 = getelementptr inbounds i8, ptr %5, i64 0
  call void @llvm.memset.p0.i64(ptr align 8 %6, i8 0, i64 24, i1 false)
  call void @_ZNSt14_Function_baseC2Ev(ptr noundef nonnull align 8 dereferenceable(24) %5) #10
  %7 = getelementptr inbounds %"class.std::function", ptr %5, i32 0, i32 1
  store ptr null, ptr %7, align 8
  %8 = load ptr, ptr %4, align 8
  %9 = call noundef zeroext i1 @"_ZNSt14_Function_base13_Base_managerIZN3gmx17LastStepSignaller18registerNSCallbackEvE3$_0E21_M_not_empty_functionIS3_EEbRKT_"(ptr noundef nonnull align 8 dereferenceable(8) %8) #10
  br i1 %9, label %10, label %15

10:                                               ; preds = %2
  %11 = getelementptr inbounds %"class.std::_Function_base", ptr %5, i32 0, i32 0
  %12 = load ptr, ptr %4, align 8
  call void @"_ZNSt14_Function_base13_Base_managerIZN3gmx17LastStepSignaller18registerNSCallbackEvE3$_0E15_M_init_functorIS3_EEvRSt9_Any_dataOT_"(ptr noundef nonnull align 8 dereferenceable(16) %11, ptr noundef nonnull align 8 dereferenceable(8) %12) #10
  %13 = getelementptr inbounds %"class.std::function", ptr %5, i32 0, i32 1
  store ptr @"_ZNSt17_Function_handlerIFvldEZN3gmx17LastStepSignaller18registerNSCallbackEvE3$_0E9_M_invokeERKSt9_Any_dataOlOd", ptr %13, align 8
  %14 = getelementptr inbounds %"class.std::_Function_base", ptr %5, i32 0, i32 1
  store ptr @"_ZNSt17_Function_handlerIFvldEZN3gmx17LastStepSignaller18registerNSCallbackEvE3$_0E10_M_managerERSt9_Any_dataRKS5_St18_Manager_operation", ptr %14, align 8
  br label %15

15:                                               ; preds = %10, %2
  ret void
}

; Function Attrs: mustprogress nounwind uwtable
define internal void @"_ZNSt22_Optional_payload_baseISt8functionIFvldEEE8_StorageIS2_Lb0EEC2IJZN3gmx17LastStepSignaller18registerNSCallbackEvE3$_0EEESt10in_place_tDpOT_"(ptr noundef nonnull align 8 dereferenceable(32) %0, ptr noundef nonnull align 8 dereferenceable(8) %1) unnamed_addr #1 align 2 {
  %3 = alloca ptr, align 8
  %4 = alloca ptr, align 8
  store ptr %0, ptr %3, align 8
  store ptr %1, ptr %4, align 8
  %5 = load ptr, ptr %3, align 8
  %6 = load ptr, ptr %4, align 8
  call void @"_ZNSt8functionIFvldEEC2IZN3gmx17LastStepSignaller18registerNSCallbackEvE3$_0vEEOT_"(ptr noundef nonnull align 8 dereferenceable(32) %5, ptr noundef nonnull align 8 dereferenceable(8) %6) #10
  ret void
}

; Function Attrs: mustprogress uwtable
define internal void @"_ZNSt22_Optional_payload_baseISt8functionIFvldEEEC2IJZN3gmx17LastStepSignaller18registerNSCallbackEvE3$_0EEESt10in_place_tDpOT_"(ptr noundef nonnull align 8 dereferenceable(33) %0, ptr noundef nonnull align 8 dereferenceable(8) %1) unnamed_addr #0 align 2 {
  %3 = alloca ptr, align 8
  %4 = alloca ptr, align 8
  store ptr %0, ptr %3, align 8
  store ptr %1, ptr %4, align 8
  %5 = load ptr, ptr %3, align 8
  %6 = getelementptr inbounds %"struct.std::_Optional_payload_base", ptr %5, i32 0, i32 0
  %7 = load ptr, ptr %4, align 8
  call void @"_ZNSt22_Optional_payload_baseISt8functionIFvldEEE8_StorageIS2_Lb0EEC2IJZN3gmx17LastStepSignaller18registerNSCallbackEvE3$_0EEESt10in_place_tDpOT_"(ptr noundef nonnull align 8 dereferenceable(32) %6, ptr noundef nonnull align 8 dereferenceable(8) %7)
  %8 = getelementptr inbounds %"struct.std::_Optional_payload_base", ptr %5, i32 0, i32 1
  store i8 1, ptr %8, align 8
  ret void
}

; Function Attrs: mustprogress uwtable
define internal void @"_ZNSt17_Optional_payloadISt8functionIFvldEELb1ELb0ELb0EECI2St22_Optional_payload_baseIS2_EIJZN3gmx17LastStepSignaller18registerNSCallbackEvE3$_0EEESt10in_place_tDpOT_"(ptr noundef nonnull align 8 dereferenceable(33) %0, ptr noundef nonnull align 8 dereferenceable(8) %1) unnamed_addr #0 align 2 {
  %3 = alloca ptr, align 8
  %4 = alloca ptr, align 8
  store ptr %0, ptr %3, align 8
  store ptr %1, ptr %4, align 8
  %5 = load ptr, ptr %3, align 8
  %6 = load ptr, ptr %4, align 8
  call void @"_ZNSt22_Optional_payload_baseISt8functionIFvldEEEC2IJZN3gmx17LastStepSignaller18registerNSCallbackEvE3$_0EEESt10in_place_tDpOT_"(ptr noundef nonnull align 8 dereferenceable(33) %5, ptr noundef nonnull align 8 dereferenceable(8) %6)
  ret void
}

; Function Attrs: mustprogress uwtable
define internal void @"_ZNSt17_Optional_payloadISt8functionIFvldEELb0ELb0ELb0EECI2St22_Optional_payload_baseIS2_EIJZN3gmx17LastStepSignaller18registerNSCallbackEvE3$_0EEESt10in_place_tDpOT_"(ptr noundef nonnull align 8 dereferenceable(33) %0, ptr noundef nonnull align 8 dereferenceable(8) %1) unnamed_addr #0 align 2 {
  %3 = alloca ptr, align 8
  %4 = alloca ptr, align 8
  store ptr %0, ptr %3, align 8
  store ptr %1, ptr %4, align 8
  %5 = load ptr, ptr %3, align 8
  %6 = load ptr, ptr %4, align 8
  call void @"_ZNSt17_Optional_payloadISt8functionIFvldEELb1ELb0ELb0EECI2St22_Optional_payload_baseIS2_EIJZN3gmx17LastStepSignaller18registerNSCallbackEvE3$_0EEESt10in_place_tDpOT_"(ptr noundef nonnull align 8 dereferenceable(33) %5, ptr noundef nonnull align 8 dereferenceable(8) %6)
  ret void
}

; Function Attrs: noreturn nounwind uwtable
define linkonce_odr hidden void @__clang_call_terminate(ptr noundef %0) #6 comdat {
  %2 = call ptr @__cxa_begin_catch(ptr %0) #10
  call void @_ZSt9terminatev() #12
  unreachable
}

; Function Attrs: mustprogress uwtable
define internal void @"_ZNSt14_Optional_baseISt8functionIFvldEELb0ELb0EEC2IJZN3gmx17LastStepSignaller18registerNSCallbackEvE3$_0ETnNSt9enable_ifIX18is_constructible_vIS2_DpT_EEbE4typeELb0EEESt10in_place_tDpOS9_"(ptr noundef nonnull align 8 dereferenceable(40) %0, ptr noundef nonnull align 8 dereferenceable(8) %1) unnamed_addr #0 align 2 {
  %3 = alloca ptr, align 8
  %4 = alloca ptr, align 8
  store ptr %0, ptr %3, align 8
  store ptr %1, ptr %4, align 8
  %5 = load ptr, ptr %3, align 8
  %6 = getelementptr inbounds %"struct.std::_Optional_base", ptr %5, i32 0, i32 0
  %7 = load ptr, ptr %4, align 8
  call void @"_ZNSt17_Optional_payloadISt8functionIFvldEELb0ELb0ELb0EECI2St22_Optional_payload_baseIS2_EIJZN3gmx17LastStepSignaller18registerNSCallbackEvE3$_0EEESt10in_place_tDpOT_"(ptr noundef nonnull align 8 dereferenceable(33) %6, ptr noundef nonnull align 8 dereferenceable(8) %7)
  ret void
}

; Function Attrs: mustprogress nounwind uwtable
define internal void @"_ZNSt8optionalISt8functionIFvldEEEC2IZN3gmx17LastStepSignaller18registerNSCallbackEvE3$_0TnNSt9enable_ifIX7__and_vISt6__not_ISt7is_sameIS3_NSt9remove_cvINSt16remove_referenceIT_E4typeEE4typeEEES9_ISA_ISt10in_place_tSH_EESt16is_constructibleIS2_JSD_EESt14is_convertibleISD_S2_EEEbE4typeELb1EEEOSD_"(ptr noundef nonnull align 8 dereferenceable(40) %0, ptr noundef nonnull align 8 dereferenceable(8) %1) unnamed_addr #1 align 2 personality ptr @__gxx_personality_v0 {
  %3 = alloca ptr, align 8
  %4 = alloca ptr, align 8
  store ptr %0, ptr %3, align 8
  store ptr %1, ptr %4, align 8
  %5 = load ptr, ptr %3, align 8
  %6 = load ptr, ptr %4, align 8
  invoke void @"_ZNSt14_Optional_baseISt8functionIFvldEELb0ELb0EEC2IJZN3gmx17LastStepSignaller18registerNSCallbackEvE3$_0ETnNSt9enable_ifIX18is_constructible_vIS2_DpT_EEbE4typeELb0EEESt10in_place_tDpOS9_"(ptr noundef nonnull align 8 dereferenceable(40) %5, ptr noundef nonnull align 8 dereferenceable(8) %6)
          to label %7 unwind label %8

7:                                                ; preds = %2
  ret void

8:                                                ; preds = %2
  %9 = landingpad { ptr, i32 }
          catch ptr null
  %10 = extractvalue { ptr, i32 } %9, 0
  call void @__clang_call_terminate(ptr %10) #12
  unreachable
}

; Function Attrs: mustprogress nounwind uwtable
define void @_ZN3gmx17LastStepSignaller18registerNSCallbackEv(ptr dead_on_unwind noalias writable sret(%"class.std::optional") align 8 %0, ptr noundef nonnull align 8 dereferenceable(80) %1) unnamed_addr #1 align 2 {
  %3 = alloca ptr, align 8
  %4 = alloca ptr, align 8
  %5 = alloca %class.anon, align 8
  store ptr %0, ptr %3, align 8
  store ptr %1, ptr %4, align 8
  %6 = load ptr, ptr %4, align 8
  %7 = getelementptr inbounds %"class.gmx::LastStepSignaller", ptr %6, i32 0, i32 8
  store i8 1, ptr %7, align 8
  %8 = getelementptr inbounds %class.anon, ptr %5, i32 0, i32 0
  store ptr %6, ptr %8, align 8
  call void @"_ZNSt8optionalISt8functionIFvldEEEC2IZN3gmx17LastStepSignaller18registerNSCallbackEvE3$_0TnNSt9enable_ifIX7__and_vISt6__not_ISt7is_sameIS3_NSt9remove_cvINSt16remove_referenceIT_E4typeEE4typeEEES9_ISA_ISt10in_place_tSH_EESt16is_constructibleIS2_JSD_EESt14is_convertibleISD_S2_EEEbE4typeELb1EEEOSD_"(ptr noundef nonnull align 8 dereferenceable(40) %0, ptr noundef nonnull align 8 dereferenceable(8) %5) #10
  ret void
}